target datalayout = "e-m:e-p270:32:32-p271:32:32-p272:64:64-i64:64-i128:128-f80:128-n8:16:32:64-S128"
target triple = "x86_64-pc-linux-gnu"

%"class.llvm::MemoryBufferRef" = type { %"class.llvm::StringRef", %"class.llvm::StringRef" }
%"class.llvm::StringRef" = type { ptr, i64 }
%"class.clang::SourceLocation" = type { i32 }
%"class.clang::SourceRange" = type { %"class.clang::SourceLocation", %"class.clang::SourceLocation" }
%"struct.std::_Rb_tree_header" = type { %"struct.std::_Rb_tree_node_base", i64 }
%"struct.std::_Rb_tree_node_base" = type { i32, ptr, ptr, ptr }
%"class.(anonymous namespace)::InclusionRewriter" = type <{ %"class.clang::PPCallbacks", ptr, ptr, ptr, %"class.llvm::StringRef", %"class.llvm::MemoryBufferRef", i8, i8, [6 x i8], %"class.std::map.240", %"class.std::map.246", %"class.std::map.246", %"class.std::map.251", %"class.clang::SourceLocation", [4 x i8] }>
%"class.clang::PPCallbacks" = type { ptr }
%"class.std::map.240" = type { %"class.std::_Rb_tree.241" }
%"class.std::_Rb_tree.241" = type { %"struct.std::_Rb_tree<clang::SourceLocation, std::pair<const clang::SourceLocation, (anonymous namespace)::InclusionRewriter::IncludedFile>, std::_Select1st<std::pair<const clang::SourceLocation, (anonymous namespace)::InclusionRewriter::IncludedFile>>, std::less<clang::SourceLocation>>::_Rb_tree_impl" }
%"struct.std::_Rb_tree<clang::SourceLocation, std::pair<const clang::SourceLocation, (anonymous namespace)::InclusionRewriter::IncludedFile>, std::_Select1st<std::pair<const clang::SourceLocation, (anonymous namespace)::InclusionRewriter::IncludedFile>>, std::less<clang::SourceLocation>>::_Rb_tree_impl" = type { [8 x i8], %"struct.std::_Rb_tree_header" }
%"class.std::map.246" = type { %"class.std::_Rb_tree.247" }
%"class.std::_Rb_tree.247" = type { %"struct.std::_Rb_tree<clang::SourceLocation, std::pair<const clang::SourceLocation, const clang::Module *>, std::_Select1st<std::pair<const clang::SourceLocation, const clang::Module *>>, std::less<clang::SourceLocation>>::_Rb_tree_impl" }
%"struct.std::_Rb_tree<clang::SourceLocation, std::pair<const clang::SourceLocation, const clang::Module *>, std::_Select1st<std::pair<const clang::SourceLocation, const clang::Module *>>, std::less<clang::SourceLocation>>::_Rb_tree_impl" = type { [8 x i8], %"struct.std::_Rb_tree_header" }
%"class.std::map.251" = type { %"class.std::_Rb_tree.252" }
%"class.std::_Rb_tree.252" = type { %"struct.std::_Rb_tree<clang::SourceLocation, std::pair<const clang::SourceLocation, bool>, std::_Select1st<std::pair<const clang::SourceLocation, bool>>, std::less<clang::SourceLocation>>::_Rb_tree_impl" }
%"struct.std::_Rb_tree<clang::SourceLocation, std::pair<const clang::SourceLocation, bool>, std::_Select1st<std::pair<const clang::SourceLocation, bool>>, std::less<clang::SourceLocation>>::_Rb_tree_impl" = type { [8 x i8], %"struct.std::_Rb_tree_header" }
%"struct.std::pair.287" = type <{ %"struct.std::_Rb_tree_iterator.289", i8, [7 x i8] }>
%"struct.std::_Rb_tree_iterator.289" = type { ptr }
%"struct.std::pair.291" = type <{ %"class.clang::SourceLocation", i8, [3 x i8] }>

; Function Attrs: mustprogress nounwind uwtable
define linkonce_odr hidden void @_ZNSt4pairIN5clang14SourceLocationEbEC2IRS1_bTnNSt9enable_ifIXaaclsr5_PCCPE22_MoveConstructiblePairIT_T0_EEclsr5_PCCPE30_ImplicitlyMoveConvertiblePairIS6_S7_EEEbE4typeELb1EEEOS6_OS7_(ptr noundef nonnull align 4 dereferenceable(5) %0, ptr noundef nonnull align 4 dereferenceable(4) %1, ptr noundef nonnull align 1 dereferenceable(1) %2) unnamed_addr #0 comdat align 2 {
  %4 = alloca ptr, align 8
  %5 = alloca ptr, align 8
  %6 = alloca ptr, align 8
  store ptr %0, ptr %4, align 8
  store ptr %1, ptr %5, align 8
  store ptr %2, ptr %6, align 8
  %7 = load ptr, ptr %4, align 8
  %8 = getelementptr inbounds nuw %"struct.std::pair.291", ptr %7, i32 0, i32 0
  %9 = load ptr, ptr %5, align 8
  call void @llvm.memcpy.p0.p0.i64(ptr align 4 %8, ptr align 4 %9, i64 4, i1 false)
  %10 = getelementptr inbounds nuw %"struct.std::pair.291", ptr %7, i32 0, i32 1
  %11 = load ptr, ptr %6, align 8
  %12 = load i8, ptr %11, align 1
  %13 = trunc i8 %12 to i1
  %14 = zext i1 %13 to i8
  store i8 %14, ptr %10, align 4
  ret void
}

; Function Attrs: mustprogress nounwind uwtable
define linkonce_odr i64 @_ZSt9make_pairIRN5clang14SourceLocationEbESt4pairINSt25__strip_reference_wrapperINSt5decayIT_E4typeEE6__typeENS4_INS5_IT0_E4typeEE6__typeEEOS6_OSB_(ptr noundef nonnull align 4 dereferenceable(4) %0, ptr noundef nonnull align 1 dereferenceable(1) %1) #0 comdat {
  %3 = alloca %"struct.std::pair.291", align 4
  %4 = alloca ptr, align 8
  %5 = alloca ptr, align 8
  store ptr %0, ptr %4, align 8
  store ptr %1, ptr %5, align 8
  %6 = load ptr, ptr %4, align 8
  %7 = load ptr, ptr %5, align 8
  call void @_ZNSt4pairIN5clang14SourceLocationEbEC2IRS1_bTnNSt9enable_ifIXaaclsr5_PCCPE22_MoveConstructiblePairIT_T0_EEclsr5_PCCPE30_ImplicitlyMoveConvertiblePairIS6_S7_EEEbE4typeELb1EEEOS6_OS7_(ptr noundef nonnull align 4 dereferenceable(5) %3, ptr noundef nonnull align 4 dereferenceable(4) %6, ptr noundef nonnull align 1 dereferenceable(1) %7)
  %8 = load i64, ptr %3, align 4
  ret i64 %8
}

; Function Attrs: mustprogress nounwind uwtable
define internal void @_ZN12_GLOBAL__N_117InclusionRewriter4ElifEN5clang14SourceLocationENS1_11SourceRangeENS1_11PPCallbacks18ConditionValueKindES2_(ptr noundef nonnull align 8 dereferenceable(284) %0, i32 %1, i64 %2, i32 noundef %3, i32 %4) unnamed_addr #0 align 2 {
  %6 = alloca %"class.clang::SourceLocation", align 4
  %7 = alloca %"class.clang::SourceRange", align 4
  %8 = alloca %"class.clang::SourceLocation", align 4
  %9 = alloca ptr, align 8
  %10 = alloca i32, align 4
  %11 = alloca %"struct.std::pair.287", align 8
  %12 = alloca %"struct.std::pair.291", align 4
  %13 = alloca i8, align 1
  %14 = alloca { ptr, i8 }, align 8
  %15 = getelementptr inbounds nuw %"class.clang::SourceLocation", ptr %6, i32 0, i32 0
  store i32 %1, ptr %15, align 4
  store i64 %2, ptr %7, align 4
  %16 = getelementptr inbounds nuw %"class.clang::SourceLocation", ptr %8, i32 0, i32 0
  store i32 %4, ptr %16, align 4
  store ptr %0, ptr %9, align 8
  store i32 %3, ptr %10, align 4
  %17 = load ptr, ptr %9, align 8
  %18 = getelementptr inbounds nuw %"class.(anonymous namespace)::InclusionRewriter", ptr %17, i32 0, i32 12
  %19 = load i32, ptr %10, align 4
  %20 = icmp eq i32 %19, 2
  %21 = zext i1 %20 to i8
  store i8 %21, ptr %13, align 1
  %22 = call i64 @_ZSt9make_pairIRN5clang14SourceLocationEbESt4pairINSt25__strip_reference_wrapperINSt5decayIT_E4typeEE6__typeENS4_INS5_IT0_E4typeEE6__typeEEOS6_OSB_(ptr noundef nonnull align 4 dereferenceable(4) %6, ptr noundef nonnull align 1 dereferenceable(1) %13)
  %23 = trunc i64 %22 to i40
  store i40 %23, ptr %12, align 4
  %24 = call { ptr, i8 } @_ZNSt3mapIN5clang14SourceLocationEbSt4lessIS1_ESaISt4pairIKS1_bEEE6insertIS4_IS1_bEEENSt9enable_ifIXsr16is_constructibleIS6_T_EE5valueES4_ISt17_Rb_tree_iteratorIS6_EbEE4typeEOSC_(ptr noundef nonnull align 8 dereferenceable(48) %18, ptr noundef nonnull align 4 dereferenceable(5) %12)
  store { ptr, i8 } %24, ptr %14, align 8
  call void @llvm.memcpy.p0.p0.i64(ptr align 8 %11, ptr align 8 %14, i64 9, i1 false)
  ret void
}