; Function Attrs: mustprogress nounwind uwtable
define internal void @_ZN12_GLOBAL__N_117InclusionRewriter4ElifEN5clang14SourceLocationENS1_11SourceRangeENS1_11PPCallbacks18ConditionValueKindES2_(ptr noundef nonnull align 8 dereferenceable(284) %0, i32 %1, i64 %2, i32 noundef %3, i32 %4) unnamed_addr #0 align 2 {
  %6 = alloca %"struct.std::pair.291", align 8
  %7 = getelementptr inbounds nuw i8, ptr %0, i64 232
  %8 = icmp eq i32 %3, 2
  %.sroa.2.0.insert.shift.i = select i1 %8, i64 4294967296, i64 0
  %.sroa.0.0.insert.ext.i = zext i32 %1 to i64
  %.sroa.0.0.insert.insert.i = or disjoint i64 %.sroa.2.0.insert.shift.i, %.sroa.0.0.insert.ext.i
  %9 = trunc nuw nsw i64 %.sroa.0.0.insert.insert.i to i40
  store i40 %9, ptr %6, align 8
  %10 = call { ptr, i8 } @_ZNSt3mapIN5clang14SourceLocationEbSt4lessIS1_ESaISt4pairIKS1_bEEE6insertIS4_IS1_bEEENSt9enable_ifIXsr16is_constructibleIS6_T_EE5valueES4_ISt17_Rb_tree_iteratorIS6_EbEE4typeEOSC_(ptr noundef nonnull align 8 dereferenceable(48) %7, ptr noundef nonnull align 4 dereferenceable(5) %6)
  ret void
}